target datalayout = "e-m:e-p270:32:32-p271:32:32-p272:64:64-i64:64-i128:128-f80:128-n8:16:32:64-S128"
target triple = "x86_64-pc-linux-gnu"

%"class.icu_77::UObject" = type { ptr }
%"class.icu_77::Calendar" = type <{ %"class.icu_77::UObject", [24 x i32], [24 x i8], i8, [7 x i8], double, ptr, i8, i16, i8, i32, i32, i32, i8, i8, i16, [4 x i8], ptr, ptr }>

; Function Attrs: mustprogress nounwind uwtable
define void @_ZN6icu_778Calendar5clearEv(ptr noundef nonnull align 8 dereferenceable(192) %0) #0 align 2 {
  %2 = alloca ptr, align 8
  store ptr %0, ptr %2, align 8, !tbaa !37
  %3 = load ptr, ptr %2, align 8
  %4 = getelementptr inbounds nuw %"class.icu_77::Calendar", ptr %3, i32 0, i32 1
  %5 = getelementptr inbounds [24 x i32], ptr %4, i64 0, i64 0
  call void @llvm.memset.p0.i64(ptr align 8 %5, i8 0, i64 96, i1 false)
  %6 = getelementptr inbounds nuw %"class.icu_77::Calendar", ptr %3, i32 0, i32 2
  %7 = getelementptr inbounds [24 x i8], ptr %6, i64 0, i64 0
  call void @llvm.memset.p0.i64(ptr align 8 %7, i8 0, i64 24, i1 false)
  %8 = getelementptr inbounds nuw %"class.icu_77::Calendar", ptr %3, i32 0, i32 3
  store i8 2, ptr %8, align 8, !tbaa !54
  %9 = getelementptr inbounds nuw %"class.icu_77::Calendar", ptr %3, i32 0, i32 7
  %10 = load i8, ptr %9, align 8
  %11 = and i8 %10, -9
  %12 = or i8 %11, 0
  store i8 %12, ptr %9, align 8
  %13 = getelementptr inbounds nuw %"class.icu_77::Calendar", ptr %3, i32 0, i32 7
  %14 = load i8, ptr %13, align 8
  %15 = and i8 %14, -5
  %16 = or i8 %15, 0
  store i8 %16, ptr %13, align 8
  %17 = getelementptr inbounds nuw %"class.icu_77::Calendar", ptr %3, i32 0, i32 7
  %18 = load i8, ptr %17, align 8
  %19 = and i8 %18, -3
  %20 = or i8 %19, 0
  store i8 %20, ptr %17, align 8
  %21 = getelementptr inbounds nuw %"class.icu_77::Calendar", ptr %3, i32 0, i32 7
  %22 = load i8, ptr %21, align 8
  %23 = and i8 %22, -2
  %24 = or i8 %23, 0
  store i8 %24, ptr %21, align 8
  ret void
}