; Function Attrs: mustprogress nofree norecurse nosync nounwind willreturn memory(argmem: readwrite) uwtable
define void @_ZN6icu_778Calendar5clearEv(ptr noundef nonnull align 8 captures(none) dereferenceable(192) initializes((8, 129)) %0) local_unnamed_addr #12 align 2 {
  %2 = getelementptr inbounds nuw i8, ptr %0, i64 8
  %3 = getelementptr inbounds nuw i8, ptr %0, i64 128
  tail call void @llvm.memset.p0.i64(ptr noundef nonnull align 8 dereferenceable(120) %2, i8 0, i64 120, i1 false)
  store i8 2, ptr %3, align 8, !tbaa !40
  %4 = getelementptr inbounds nuw i8, ptr %0, i64 152
  %5 = load i8, ptr %4, align 8
  %6 = and i8 %5, -16
  store i8 %6, ptr %4, align 8
  ret void
}